target datalayout = "e-m:e-p270:32:32-p271:32:32-p272:64:64-i64:64-i128:128-f80:128-n8:16:32:64-S128"
target triple = "x86_64-pc-linux-gnu"

%struct.expert_field = type { i32, i32 }
%struct._packet_info = type { ptr, ptr, i32, i32, %struct.nstime_t, %struct.nstime_t, %struct.nstime_t, i8, ptr, ptr, ptr, ptr, %struct._address, %struct._address, %struct._address, %struct._address, %struct._address, %struct._address, i32, ptr, i8, [3 x i8], %struct.anon, i32, i32, i32, i32, ptr, i8, ptr, ptr, i16, i16, i32, i32, i16, i32, i32, ptr, ptr, ptr, i8, i8, i16, i16, i16, i32, i16, i16, ptr, ptr, ptr, ptr, ptr, i32, i32 }
%struct.nstime_t = type { i64, i32 }
%struct._address = type { i32, i32, ptr, ptr }
%struct.anon = type { i8, [3 x i8] }
%struct._t38_packet_info = type { i16, i32, i32, i32, i32, i32, i8, [128 x i8], [128 x i8], double, i32 }

@hf_t30_fif_number = internal global i32 0, align 4
@ei_t30_bad_length = internal global %struct.expert_field zeroinitializer, align 4
@.str.408 = private unnamed_addr constant [13 x i8] c" - Number:%s\00", align 1
@.str.409 = private unnamed_addr constant [8 x i8] c"Num: %s\00", align 1
@.str.410 = private unnamed_addr constant [55 x i8] c"MALFORMED OR SHORT PACKET: number of digits must be 20\00", align 1
@.str.411 = private unnamed_addr constant [58 x i8] c" [MALFORMED OR SHORT PACKET: number of digits must be 20]\00", align 1

; Function Attrs: nounwind null_pointer_is_valid sspstrong uwtable
define internal zeroext i8 @reverse_byte(i8 noundef zeroext %0) #3 {
  %2 = alloca i8, align 1
  store i8 %0, ptr %2, align 1
  %3 = load i8, ptr %2, align 1
  %4 = zext i8 %3 to i32
  %5 = and i32 %4, 128
  %6 = ashr i32 %5, 7
  %7 = load i8, ptr %2, align 1
  %8 = zext i8 %7 to i32
  %9 = and i32 %8, 64
  %10 = ashr i32 %9, 5
  %11 = or i32 %6, %10
  %12 = load i8, ptr %2, align 1
  %13 = zext i8 %12 to i32
  %14 = and i32 %13, 32
  %15 = ashr i32 %14, 3
  %16 = or i32 %11, %15
  %17 = load i8, ptr %2, align 1
  %18 = zext i8 %17 to i32
  %19 = and i32 %18, 16
  %20 = ashr i32 %19, 1
  %21 = or i32 %16, %20
  %22 = load i8, ptr %2, align 1
  %23 = zext i8 %22 to i32
  %24 = and i32 %23, 8
  %25 = shl i32 %24, 1
  %26 = or i32 %21, %25
  %27 = load i8, ptr %2, align 1
  %28 = zext i8 %27 to i32
  %29 = and i32 %28, 4
  %30 = shl i32 %29, 3
  %31 = or i32 %26, %30
  %32 = load i8, ptr %2, align 1
  %33 = zext i8 %32 to i32
  %34 = and i32 %33, 2
  %35 = shl i32 %34, 5
  %36 = or i32 %31, %35
  %37 = load i8, ptr %2, align 1
  %38 = zext i8 %37 to i32
  %39 = and i32 %38, 1
  %40 = shl i32 %39, 7
  %41 = or i32 %36, %40
  %42 = trunc i32 %41 to i8
  ret i8 %42
}

; Function Attrs: null_pointer_is_valid sspstrong uwtable
define internal ptr @t30_get_string_numbers(ptr noundef %0, ptr noundef %1, i32 noundef %2, i32 noundef %3) #1 {
  %5 = alloca ptr, align 8
  %6 = alloca ptr, align 8
  %7 = alloca ptr, align 8
  %8 = alloca i32, align 4
  %9 = alloca i32, align 4
  %10 = alloca [21 x i8], align 16
  %11 = alloca i32, align 4
  %12 = alloca i32, align 4
  %13 = alloca ptr, align 8
  store ptr %0, ptr %6, align 8
  store ptr %1, ptr %7, align 8
  store i32 %2, ptr %8, align 4
  store i32 %3, ptr %9, align 4
  call void @llvm.lifetime.start.p0(i64 21, ptr %10) #8
  call void @llvm.lifetime.start.p0(i64 4, ptr %11) #8
  %14 = load i32, ptr %9, align 4
  %15 = icmp ne i32 %14, 20
  br i1 %15, label %16, label %17

16:                                               ; preds = %4
  store ptr null, ptr %5, align 8
  store i32 1, ptr %12, align 4
  br label %47

17:                                               ; preds = %4
  store i32 0, ptr %11, align 4
  br label %18

18:                                               ; preds = %33, %17
  %19 = load i32, ptr %11, align 4
  %20 = icmp slt i32 %19, 20
  br i1 %20, label %21, label %36

21:                                               ; preds = %18
  %22 = load ptr, ptr %7, align 8
  %23 = load i32, ptr %8, align 4
  %24 = load i32, ptr %11, align 4
  %25 = add i32 %23, %24
  %26 = call zeroext i8 @tvb_get_uint8(ptr noundef %22, i32 noundef %25)
  %27 = call zeroext i8 @reverse_byte(i8 noundef zeroext %26)
  %28 = load i32, ptr %11, align 4
  %29 = sub i32 20, %28
  %30 = sub i32 %29, 1
  %31 = sext i32 %30 to i64
  %32 = getelementptr [21 x i8], ptr %10, i64 0, i64 %31
  store i8 %27, ptr %32, align 1
  br label %33

33:                                               ; preds = %21
  %34 = load i32, ptr %11, align 4
  %35 = add i32 %34, 1
  store i32 %35, ptr %11, align 4
  br label %18, !llvm.loop !11

36:                                               ; preds = %18
  %37 = getelementptr [21 x i8], ptr %10, i64 0, i64 20
  store i8 0, ptr %37, align 4
  call void @llvm.lifetime.start.p0(i64 8, ptr %13) #8
  %38 = getelementptr inbounds [21 x i8], ptr %10, i64 0, i64 0
  %39 = call ptr @g_strchug(ptr noundef %38)
  %40 = call ptr @g_strchomp(ptr noundef %39)
  store ptr %40, ptr %13, align 8
  %41 = load ptr, ptr %6, align 8
  %42 = load ptr, ptr %13, align 8
  %43 = load ptr, ptr %13, align 8
  %44 = call i64 @strlen(ptr noundef %43) #11
  %45 = trunc i64 %44 to i32
  %46 = call ptr @get_utf_8_string(ptr noundef %41, ptr noundef %42, i32 noundef %45)
  store ptr %46, ptr %5, align 8
  store i32 1, ptr %12, align 4
  call void @llvm.lifetime.end.p0(i64 8, ptr %13) #8
  br label %47

47:                                               ; preds = %36, %16
  call void @llvm.lifetime.end.p0(i64 4, ptr %11) #8
  call void @llvm.lifetime.end.p0(i64 21, ptr %10) #8
  %48 = load ptr, ptr %5, align 8
  ret ptr %48
}

; Function Attrs: null_pointer_is_valid sspstrong uwtable
define internal void @dissect_t30_numbers(ptr noundef %0, i32 noundef %1, ptr noundef %2, i32 noundef %3, ptr noundef %4, ptr noundef %5) #1 {
  %7 = alloca ptr, align 8
  %8 = alloca i32, align 4
  %9 = alloca ptr, align 8
  %10 = alloca i32, align 4
  %11 = alloca ptr, align 8
  %12 = alloca ptr, align 8
  %13 = alloca ptr, align 8
  store ptr %0, ptr %7, align 8
  store i32 %1, ptr %8, align 4
  store ptr %2, ptr %9, align 8
  store i32 %3, ptr %10, align 4
  store ptr %4, ptr %11, align 8
  store ptr %5, ptr %12, align 8
  call void @llvm.lifetime.start.p0(i64 8, ptr %13) #8
  %14 = load ptr, ptr %9, align 8
  %15 = getelementptr inbounds nuw %struct._packet_info, ptr %14, i32 0, i32 51
  %16 = load ptr, ptr %15, align 8
  %17 = load ptr, ptr %7, align 8
  %18 = load i32, ptr %8, align 4
  %19 = load i32, ptr %10, align 4
  %20 = call ptr @t30_get_string_numbers(ptr noundef %16, ptr noundef %17, i32 noundef %18, i32 noundef %19)
  store ptr %20, ptr %13, align 8
  %21 = load ptr, ptr %13, align 8
  %22 = icmp ne ptr %21, null
  br i1 %22, label %23, label %43

23:                                               ; preds = %6
  %24 = load ptr, ptr %11, align 8
  %25 = load i32, ptr @hf_t30_fif_number, align 4
  %26 = load ptr, ptr %7, align 8
  %27 = load i32, ptr %8, align 4
  %28 = load ptr, ptr %13, align 8
  %29 = call ptr @proto_tree_add_string(ptr noundef %24, i32 noundef %25, ptr noundef %26, i32 noundef %27, i32 noundef 20, ptr noundef %28)
  %30 = load ptr, ptr %9, align 8
  %31 = getelementptr inbounds nuw %struct._packet_info, ptr %30, i32 0, i32 1
  %32 = load ptr, ptr %31, align 8
  %33 = load ptr, ptr %13, align 8
  call void (ptr, i32, ptr, ...) @col_append_fstr(ptr noundef %32, i32 noundef 25, ptr noundef @.str.408, ptr noundef %33)
  %34 = load ptr, ptr %12, align 8
  %35 = icmp ne ptr %34, null
  br i1 %35, label %36, label %42

36:                                               ; preds = %23
  %37 = load ptr, ptr %12, align 8
  %38 = getelementptr inbounds nuw %struct._t38_packet_info, ptr %37, i32 0, i32 7
  %39 = getelementptr inbounds [128 x i8], ptr %38, i64 0, i64 0
  %40 = load ptr, ptr %13, align 8
  %41 = call i32 (ptr, i64, i32, i64, ptr, ...) @__snprintf_chk(ptr noundef %39, i64 noundef 128, i32 noundef 2, i64 noundef 128, ptr noundef @.str.409, ptr noundef %40)
  br label %42

42:                                               ; preds = %36, %23
  br label %52

43:                                               ; preds = %6
  %44 = load ptr, ptr %11, align 8
  %45 = load ptr, ptr %9, align 8
  %46 = load ptr, ptr %7, align 8
  %47 = load i32, ptr %8, align 4
  %48 = call ptr (ptr, ptr, ptr, ptr, i32, i32, ptr, ...) @proto_tree_add_expert_format(ptr noundef %44, ptr noundef %45, ptr noundef @ei_t30_bad_length, ptr noundef %46, i32 noundef %47, i32 noundef -1, ptr noundef @.str.410)
  %49 = load ptr, ptr %9, align 8
  %50 = getelementptr inbounds nuw %struct._packet_info, ptr %49, i32 0, i32 1
  %51 = load ptr, ptr %50, align 8
  call void @col_append_str(ptr noundef %51, i32 noundef 25, ptr noundef @.str.411)
  br label %52

52:                                               ; preds = %43, %42
  call void @llvm.lifetime.end.p0(i64 8, ptr %13) #8
  ret void
}