; Function Attrs: null_pointer_is_valid sspstrong uwtable
define internal fastcc void @dissect_t30_numbers(ptr noundef %0, ptr noundef %1, i32 noundef %2, ptr noundef %3, ptr noundef %4) unnamed_addr #1 {
  %6 = alloca [21 x i8], align 16
  %7 = getelementptr inbounds nuw i8, ptr %1, i64 408
  %8 = load ptr, ptr %7, align 8
  call void @llvm.lifetime.start.p0(i64 21, ptr nonnull %6) #8
  %.not.i = icmp eq i32 %2, 20
  br i1 %.not.i, label %.preheader.i, label %t30_get_string_numbers.exit.thread

t30_get_string_numbers.exit.thread:               ; preds = %5
  call void @llvm.lifetime.end.p0(i64 21, ptr nonnull %6) #8
  br label %28

.preheader.i:                                     ; preds = %5, %.preheader.i
  %indvars.iv.i = phi i64 [ %indvars.iv.next.i, %.preheader.i ], [ 0, %5 ]
  %9 = trunc i64 %indvars.iv.i to i32
  %10 = add i32 %9, 3
  %11 = tail call zeroext i8 @tvb_get_uint8(ptr noundef %0, i32 noundef %10)
  %rev.i.i = tail call noundef i8 @llvm.bitreverse.i8(i8 %11)
  %12 = sub nuw nsw i64 19, %indvars.iv.i
  %13 = getelementptr [21 x i8], ptr %6, i64 0, i64 %12
  store i8 %rev.i.i, ptr %13, align 1
  %indvars.iv.next.i = add nuw nsw i64 %indvars.iv.i, 1
  %exitcond.not.i = icmp eq i64 %indvars.iv.next.i, 20
  br i1 %exitcond.not.i, label %t30_get_string_numbers.exit, label %.preheader.i, !llvm.loop !6

t30_get_string_numbers.exit:                      ; preds = %.preheader.i
  %14 = getelementptr inbounds nuw i8, ptr %6, i64 20
  store i8 0, ptr %14, align 4
  %15 = call ptr @g_strchug(ptr noundef nonnull %6)
  %16 = call ptr @g_strchomp(ptr noundef %15)
  %17 = call i64 @strlen(ptr noundef %16) #9
  %18 = trunc i64 %17 to i32
  %19 = call ptr @get_utf_8_string(ptr noundef %8, ptr noundef %16, i32 noundef %18)
  call void @llvm.lifetime.end.p0(i64 21, ptr nonnull %6) #8
  %.not = icmp eq ptr %19, null
  br i1 %.not, label %28, label %20

20:                                               ; preds = %t30_get_string_numbers.exit
  %21 = load i32, ptr @hf_t30_fif_number, align 4
  %22 = call ptr @proto_tree_add_string(ptr noundef %3, i32 noundef %21, ptr noundef %0, i32 noundef 3, i32 noundef 20, ptr noundef nonnull %19)
  %23 = getelementptr inbounds nuw i8, ptr %1, i64 8
  %24 = load ptr, ptr %23, align 8
  call void (ptr, i32, ptr, ...) @col_append_fstr(ptr noundef %24, i32 noundef 25, ptr noundef nonnull @.str.408, ptr noundef nonnull %19)
  %.not19 = icmp eq ptr %4, null
  br i1 %.not19, label %32, label %25

25:                                               ; preds = %20
  %26 = getelementptr inbounds nuw i8, ptr %4, i64 25
  %27 = call i32 (ptr, i64, i32, i64, ptr, ...) @__snprintf_chk(ptr noundef nonnull %26, i64 noundef 128, i32 noundef 2, i64 noundef 128, ptr noundef nonnull @.str.409, ptr noundef nonnull %19)
  br label %32

28:                                               ; preds = %t30_get_string_numbers.exit.thread, %t30_get_string_numbers.exit
  %29 = call ptr (ptr, ptr, ptr, ptr, i32, i32, ptr, ...) @proto_tree_add_expert_format(ptr noundef %3, ptr noundef %1, ptr noundef nonnull @ei_t30_bad_length, ptr noundef %0, i32 noundef 3, i32 noundef -1, ptr noundef nonnull @.str.410)
  %30 = getelementptr inbounds nuw i8, ptr %1, i64 8
  %31 = load ptr, ptr %30, align 8
  call void @col_append_str(ptr noundef %31, i32 noundef 25, ptr noundef nonnull @.str.411)
  br label %32

32:                                               ; preds = %20, %25, %28
  ret void
}